; ModuleID = 'source-C-CXX/53/469.c'
source_filename = "source-C-CXX/53/469.c"
target datalayout = "e-m:e-p270:32:32-p271:32:32-p272:64:64-i64:64-f80:128-n8:16:32:64-S128"
target triple = "x86_64-pc-linux-gnu"

@.str = private unnamed_addr constant [6 x i8] c"%d %d\00", align 1
@.str.1 = private unnamed_addr constant [3 x i8] c"%d\00", align 1

; Function Attrs: nofree nounwind sspstrong uwtable
define dso_local void @main() local_unnamed_addr #0 {
  %1 = alloca i32, align 4
  %2 = alloca i32, align 4
  %3 = bitcast i32* %1 to i8*
  call void @llvm.lifetime.start.p0i8(i64 4, i8* nonnull %3) #3
  %4 = bitcast i32* %2 to i8*
  call void @llvm.lifetime.start.p0i8(i64 4, i8* nonnull %4) #3
  %5 = call i32 (i8*, ...) @__isoc99_scanf(i8* getelementptr inbounds ([6 x i8], [6 x i8]* @.str, i64 0, i64 0), i32* nonnull %1, i32* nonnull %2)
  %6 = load i32, i32* %1, align 4, !tbaa !5
  %7 = add nsw i32 %6, -1
  %8 = load i32, i32* %2, align 4, !tbaa !5
  %9 = icmp slt i32 %6, 2
  %10 = add nsw i32 %6, %8
  br i1 %9, label %29, label %15

11:                                               ; preds = %18
  %12 = add nuw nsw i32 %17, 1
  %13 = mul nsw i32 %12, %6
  %14 = add nsw i32 %13, %8
  br label %15

15:                                               ; preds = %0, %11
  %16 = phi i32 [ %14, %11 ], [ %10, %0 ]
  %17 = phi i32 [ %12, %11 ], [ 1, %0 ]
  br label %18

18:                                               ; preds = %15, %23
  %19 = phi i32 [ %16, %15 ], [ %27, %23 ]
  %20 = phi i32 [ 2, %15 ], [ %26, %23 ]
  %21 = srem i32 %19, %7
  %22 = icmp eq i32 %21, 0
  br i1 %22, label %23, label %11

23:                                               ; preds = %18
  %24 = mul nsw i32 %19, %6
  %25 = sdiv i32 %24, %7
  %26 = add nuw i32 %20, 1
  %27 = add nsw i32 %25, %8
  %28 = icmp eq i32 %20, %6
  br i1 %28, label %29, label %18, !llvm.loop !9

29:                                               ; preds = %23, %0
  %30 = phi i32 [ %10, %0 ], [ %27, %23 ]
  %31 = call i32 (i8*, ...) @printf(i8* nonnull dereferenceable(1) getelementptr inbounds ([3 x i8], [3 x i8]* @.str.1, i64 0, i64 0), i32 %30)
  call void @llvm.lifetime.end.p0i8(i64 4, i8* nonnull %4) #3
  call void @llvm.lifetime.end.p0i8(i64 4, i8* nonnull %3) #3
  ret void
}

; Function Attrs: argmemonly mustprogress nofree nosync nounwind willreturn
declare void @llvm.lifetime.start.p0i8(i64 immarg, i8* nocapture) #1

; Function Attrs: nofree nounwind
declare noundef i32 @__isoc99_scanf(i8* nocapture noundef readonly, ...) local_unnamed_addr #2

; Function Attrs: nofree nounwind
declare noundef i32 @printf(i8* nocapture noundef readonly, ...) local_unnamed_addr #2

; Function Attrs: argmemonly mustprogress nofree nosync nounwind willreturn
declare void @llvm.lifetime.end.p0i8(i64 immarg, i8* nocapture) #1


!llvm.module.flags = !{!0, !1, !2, !3}
!llvm.ident = !{!4}

!0 = !{i32 1, !"wchar_size", i32 4}
!1 = !{i32 7, !"PIC Level", i32 2}
!2 = !{i32 7, !"PIE Level", i32 2}
!3 = !{i32 7, !"uwtable", i32 1}
!4 = !{!"clang version 13.0.0"}
!5 = !{!6, !6, i64 0}
!6 = !{!"int", !7, i64 0}
!7 = !{!"omnipotent char", !8, i64 0}
!8 = !{!"Simple C/C++ TBAA"}
!9 = distinct !{!9, !10}
!10 = !{!"llvm.loop.mustprogress"}
